; Function Attrs: nounwind uwtable
define range(i32 0, 2) i32 @ssl_check_srvr_ecc_cert_and_alg(ptr noundef %0, ptr noundef readonly captures(none) %1) local_unnamed_addr #0 {
  %3 = getelementptr inbounds nuw i8, ptr %1, i64 768
  %4 = load ptr, ptr %3, align 8, !tbaa !456
  %5 = getelementptr inbounds nuw i8, ptr %4, i64 32
  %6 = load i32, ptr %5, align 8, !tbaa !457
  %7 = and i32 %6, 8
  %.not = icmp eq i32 %7, 0
  br i1 %.not, label %12, label %8

8:                                                ; preds = %2
  %9 = tail call i32 @X509_get_key_usage(ptr noundef %0) #20
  %10 = and i32 %9, 128
  %.not2 = icmp eq i32 %10, 0
  br i1 %.not2, label %11, label %12

11:                                               ; preds = %8
  tail call void @ERR_new() #20
  tail call void @ERR_set_debug(ptr noundef nonnull @.str, i32 noundef 4654, ptr noundef nonnull @__func__.ssl_check_srvr_ecc_cert_and_alg) #20
  tail call void (i32, i32, ptr, ...) @ERR_set_error(i32 noundef 20, i32 noundef 318, ptr noundef null) #20
  br label %12

12:                                               ; preds = %2, %8, %11
  %.0 = phi i32 [ 0, %11 ], [ 1, %8 ], [ 1, %2 ]
  ret i32 %.0
}